; ModuleID = '7/376.c'
source_filename = "7/376.c"
target datalayout = "e-m:e-p270:32:32-p271:32:32-p272:64:64-i64:64-f80:128-n8:16:32:64-S128"
target triple = "x86_64-pc-linux-gnu"

@.str = private unnamed_addr constant [7 x i8] c"%s%s%s\00", align 1
@.str.1 = private unnamed_addr constant [3 x i8] c"%c\00", align 1
@.str.2 = private unnamed_addr constant [3 x i8] c"%s\00", align 1

; Function Attrs: noinline nounwind uwtable
define dso_local i32 @main() #0 {
  %1 = alloca i32, align 4
  %2 = alloca [257 x i8], align 16
  %3 = alloca [257 x i8], align 16
  %4 = alloca [257 x i8], align 16
  %5 = alloca i32, align 4
  %6 = alloca i32, align 4
  %7 = alloca i32, align 4
  %8 = alloca i32, align 4
  %9 = alloca i32, align 4
  %10 = alloca i32, align 4
  %11 = alloca i32, align 4
  %12 = alloca i32, align 4
  store i32 0, i32* %1, align 4
  store i32 0, i32* %11, align 4
  %13 = getelementptr inbounds [257 x i8], [257 x i8]* %2, i64 0, i64 0
  %14 = getelementptr inbounds [257 x i8], [257 x i8]* %3, i64 0, i64 0
  %15 = getelementptr inbounds [257 x i8], [257 x i8]* %4, i64 0, i64 0
  %16 = call i32 (i8*, ...) @__isoc99_scanf(i8* getelementptr inbounds ([7 x i8], [7 x i8]* @.str, i64 0, i64 0), i8* %13, i8* %14, i8* %15)
  %17 = getelementptr inbounds [257 x i8], [257 x i8]* %2, i64 0, i64 0
  %18 = call i64 @strlen(i8* %17) #3
  %19 = trunc i64 %18 to i32
  store i32 %19, i32* %8, align 4
  %20 = getelementptr inbounds [257 x i8], [257 x i8]* %3, i64 0, i64 0
  %21 = call i64 @strlen(i8* %20) #3
  %22 = trunc i64 %21 to i32
  store i32 %22, i32* %9, align 4
  %23 = getelementptr inbounds [257 x i8], [257 x i8]* %4, i64 0, i64 0
  %24 = call i64 @strlen(i8* %23) #3
  %25 = trunc i64 %24 to i32
  store i32 %25, i32* %10, align 4
  store i32 0, i32* %5, align 4
  br label %26

26:                                               ; preds = %120, %0
  %27 = load i32, i32* %5, align 4
  %28 = load i32, i32* %8, align 4
  %29 = load i32, i32* %9, align 4
  %30 = sub nsw i32 %28, %29
  %31 = icmp sle i32 %27, %30
  br i1 %31, label %32, label %123

32:                                               ; preds = %26
  %33 = load i32, i32* %5, align 4
  %34 = sext i32 %33 to i64
  %35 = getelementptr inbounds [257 x i8], [257 x i8]* %2, i64 0, i64 %34
  %36 = load i8, i8* %35, align 1
  %37 = sext i8 %36 to i32
  %38 = getelementptr inbounds [257 x i8], [257 x i8]* %3, i64 0, i64 0
  %39 = load i8, i8* %38, align 16
  %40 = sext i8 %39 to i32
  %41 = icmp eq i32 %37, %40
  br i1 %41, label %42, label %119

42:                                               ; preds = %32
  store i32 0, i32* %12, align 4
  store i32 0, i32* %6, align 4
  br label %43

43:                                               ; preds = %63, %42
  %44 = load i32, i32* %6, align 4
  %45 = load i32, i32* %9, align 4
  %46 = icmp slt i32 %44, %45
  br i1 %46, label %47, label %66

47:                                               ; preds = %43
  %48 = load i32, i32* %5, align 4
  %49 = load i32, i32* %6, align 4
  %50 = add nsw i32 %48, %49
  %51 = sext i32 %50 to i64
  %52 = getelementptr inbounds [257 x i8], [257 x i8]* %2, i64 0, i64 %51
  %53 = load i8, i8* %52, align 1
  %54 = sext i8 %53 to i32
  %55 = load i32, i32* %6, align 4
  %56 = sext i32 %55 to i64
  %57 = getelementptr inbounds [257 x i8], [257 x i8]* %3, i64 0, i64 %56
  %58 = load i8, i8* %57, align 1
  %59 = sext i8 %58 to i32
  %60 = icmp ne i32 %54, %59
  br i1 %60, label %61, label %62

61:                                               ; preds = %47
  store i32 1, i32* %12, align 4
  br label %66

62:                                               ; preds = %47
  br label %63

63:                                               ; preds = %62
  %64 = load i32, i32* %6, align 4
  %65 = add nsw i32 %64, 1
  store i32 %65, i32* %6, align 4
  br label %43

66:                                               ; preds = %61, %43
  %67 = load i32, i32* %12, align 4
  %68 = icmp eq i32 %67, 0
  br i1 %68, label %69, label %118

69:                                               ; preds = %66
  store i32 1, i32* %11, align 4
  store i32 0, i32* %7, align 4
  br label %70

70:                                               ; preds = %81, %69
  %71 = load i32, i32* %7, align 4
  %72 = load i32, i32* %5, align 4
  %73 = icmp slt i32 %71, %72
  br i1 %73, label %74, label %84

74:                                               ; preds = %70
  %75 = load i32, i32* %7, align 4
  %76 = sext i32 %75 to i64
  %77 = getelementptr inbounds [257 x i8], [257 x i8]* %2, i64 0, i64 %76
  %78 = load i8, i8* %77, align 1
  %79 = sext i8 %78 to i32
  %80 = call i32 (i8*, ...) @printf(i8* getelementptr inbounds ([3 x i8], [3 x i8]* @.str.1, i64 0, i64 0), i32 %79)
  br label %81

81:                                               ; preds = %74
  %82 = load i32, i32* %7, align 4
  %83 = add nsw i32 %82, 1
  store i32 %83, i32* %7, align 4
  br label %70

84:                                               ; preds = %70
  store i32 0, i32* %7, align 4
  br label %85

85:                                               ; preds = %96, %84
  %86 = load i32, i32* %7, align 4
  %87 = load i32, i32* %10, align 4
  %88 = icmp slt i32 %86, %87
  br i1 %88, label %89, label %99

89:                                               ; preds = %85
  %90 = load i32, i32* %7, align 4
  %91 = sext i32 %90 to i64
  %92 = getelementptr inbounds [257 x i8], [257 x i8]* %4, i64 0, i64 %91
  %93 = load i8, i8* %92, align 1
  %94 = sext i8 %93 to i32
  %95 = call i32 (i8*, ...) @printf(i8* getelementptr inbounds ([3 x i8], [3 x i8]* @.str.1, i64 0, i64 0), i32 %94)
  br label %96

96:                                               ; preds = %89
  %97 = load i32, i32* %7, align 4
  %98 = add nsw i32 %97, 1
  store i32 %98, i32* %7, align 4
  br label %85

99:                                               ; preds = %85
  %100 = load i32, i32* %5, align 4
  %101 = load i32, i32* %9, align 4
  %102 = add nsw i32 %100, %101
  store i32 %102, i32* %7, align 4
  br label %103

103:                                              ; preds = %114, %99
  %104 = load i32, i32* %7, align 4
  %105 = load i32, i32* %8, align 4
  %106 = icmp slt i32 %104, %105
  br i1 %106, label %107, label %117

107:                                              ; preds = %103
  %108 = load i32, i32* %7, align 4
  %109 = sext i32 %108 to i64
  %110 = getelementptr inbounds [257 x i8], [257 x i8]* %2, i64 0, i64 %109
  %111 = load i8, i8* %110, align 1
  %112 = sext i8 %111 to i32
  %113 = call i32 (i8*, ...) @printf(i8* getelementptr inbounds ([3 x i8], [3 x i8]* @.str.1, i64 0, i64 0), i32 %112)
  br label %114

114:                                              ; preds = %107
  %115 = load i32, i32* %7, align 4
  %116 = add nsw i32 %115, 1
  store i32 %116, i32* %7, align 4
  br label %103

117:                                              ; preds = %103
  br label %123

118:                                              ; preds = %66
  br label %120

119:                                              ; preds = %32
  br label %120

120:                                              ; preds = %119, %118
  %121 = load i32, i32* %5, align 4
  %122 = add nsw i32 %121, 1
  store i32 %122, i32* %5, align 4
  br label %26

123:                                              ; preds = %117, %26
  %124 = load i32, i32* %11, align 4
  %125 = icmp eq i32 %124, 0
  br i1 %125, label %126, label %129

126:                                              ; preds = %123
  %127 = getelementptr inbounds [257 x i8], [257 x i8]* %2, i64 0, i64 0
  %128 = call i32 (i8*, ...) @printf(i8* getelementptr inbounds ([3 x i8], [3 x i8]* @.str.2, i64 0, i64 0), i8* %127)
  br label %129

129:                                              ; preds = %126, %123
  ret i32 0
}

declare dso_local i32 @__isoc99_scanf(i8*, ...) #1

; Function Attrs: nounwind readonly
declare dso_local i64 @strlen(i8*) #2

declare dso_local i32 @printf(i8*, ...) #1


!llvm.module.flags = !{!0}
!llvm.ident = !{!1}

!0 = !{i32 1, !"wchar_size", i32 4}
!1 = !{!"clang version 10.0.0-4ubuntu1 "}
